target datalayout = "e-m:e-p270:32:32-p271:32:32-p272:64:64-i64:64-i128:128-f80:128-n8:16:32:64-S128"
target triple = "x86_64-pc-linux-gnu"

%class.QuickOpen = type <{ ptr, i8, [7 x i8], ptr, ptr, ptr, i64, %class.CryptData, i8, [7 x i8], i64, i64, i64, i64, i64, i64, %class.Array, i64, i64, i8, [7 x i8] }>
%class.CryptData = type { [4 x %"struct.CryptData::KDF3CacheItem"], i32, [4 x i8], [4 x %"struct.CryptData::KDF5CacheItem"], i32, i32, %class.Rijndael, [256 x i32], [256 x i8], [4 x i32], [3 x i8], [4 x i16], [4 x i8] }
%"struct.CryptData::KDF3CacheItem" = type { %class.SecPassword, [8 x i8], [16 x i8], [16 x i8], i8, [7 x i8] }
%class.SecPassword = type <{ %"class.std::vector", i8, [7 x i8] }>
%"class.std::vector" = type { %"struct.std::_Vector_base" }
%"struct.std::_Vector_base" = type { %"struct.std::_Vector_base<wchar_t, std::allocator<wchar_t>>::_Vector_impl" }
%"struct.std::_Vector_base<wchar_t, std::allocator<wchar_t>>::_Vector_impl" = type { %"struct.std::_Vector_base<wchar_t, std::allocator<wchar_t>>::_Vector_impl_data" }
%"struct.std::_Vector_base<wchar_t, std::allocator<wchar_t>>::_Vector_impl_data" = type { ptr, ptr, ptr }
%"struct.CryptData::KDF5CacheItem" = type { %class.SecPassword, [16 x i8], [32 x i8], i32, [32 x i8], [32 x i8], [4 x i8] }
%class.Rijndael = type { i8, i32, [16 x i8], [15 x [4 x [4 x i8]]] }
%class.Array = type { ptr, i64, i64, i64 }
%class.Archive = type <{ %class.File, %class.CryptData, %class.ComprDataIO, i8, [7 x i8], ptr, %class.RarTime, i32, i32, i8, [7 x i8], %class.QuickOpen, i8, [3 x i8], %struct.BaseBlock, %struct.MarkHeader, [4 x i8], %struct.MainHeader, %struct.CryptHeader, [4 x i8], %struct.FileHeader, %struct.EndArcHeader, %struct.SubBlockHeader, [4 x i8], %struct.FileHeader, %struct.CommentHeader, %struct.ProtectHeader, %struct.EAHeader, %struct.StreamHeader, [4 x i8], i64, i64, i32, i8, i8, i8, i8, i8, i8, i8, i8, i8, [3 x i8], i64, i8, i8, [16 x i8], i8, i8, i32, i64, i64, i64, i8, [3 x i8], [2048 x i32], [4 x i8] }>
%class.File = type { ptr, i64, i8, i32, i8, i8, i32, i8, i8, i8, i8, i8, i64, i8, [2048 x i32], i32, ptr }
%class.ComprDataIO = type <{ i8, [7 x i8], i64, ptr, i8, [7 x i8], i64, ptr, i64, ptr, i64, i64, i8, i8, i8, i8, [4 x i8], ptr, ptr, ptr, ptr, ptr, ptr, ptr, i32, i32, i8, i8, i8, [5 x i8], i64, i64, i64, i64, i64, i64, i64, %class.DataHash, %class.DataHash, %class.DataHash, i8, i8, [6 x i8] }>
%class.DataHash = type { i32, i32, ptr }
%class.RarTime = type { i64 }
%struct.BaseBlock = type { i32, i32, i32, i32, i8 }
%struct.MarkHeader = type { [8 x i8], i32 }
%struct.MainHeader = type { %struct.BaseBlock, i16, i32, i8, i8, i8, i64, i64, i64, i64, i64, %"class.std::__cxx11::basic_string", %class.RarTime }
%"class.std::__cxx11::basic_string" = type { %"struct.std::__cxx11::basic_string<wchar_t>::_Alloc_hider", i64, %union.anon }
%"struct.std::__cxx11::basic_string<wchar_t>::_Alloc_hider" = type { ptr }
%union.anon = type { i64, [8 x i8] }
%struct.CryptHeader = type { %struct.BaseBlock, i8, i32, [16 x i8], [8 x i8] }
%struct.EndArcHeader = type { %struct.BaseBlock, i32, i32, i8, i8, i8, i8 }
%struct.SubBlockHeader = type <{ %struct.BlockHeader, i16, i8, i8 }>
%struct.BlockHeader = type { %struct.BaseBlock, i32 }
%struct.FileHeader = type { %struct.BlockHeader, i8, i32, i8, %union.anon.0, [2048 x i32], %class.Array, %class.RarTime, %class.RarTime, %class.RarTime, i64, i64, i64, %struct.HashValue, i32, i8, i8, i8, i8, i32, i8, [16 x i8], [16 x i8], i8, [8 x i8], i8, [32 x i8], i32, i8, i8, i8, i8, i64, i8, i8, i8, i32, i32, [2048 x i32], i8, i8, i8, i8, [256 x i8], [256 x i8], i32, i32 }
%union.anon.0 = type { i32 }
%struct.HashValue = type { i32, %union.anon.1 }
%union.anon.1 = type { i32, [28 x i8] }
%struct.CommentHeader = type <{ %struct.BaseBlock, i16, i8, i8, i16, [2 x i8] }>
%struct.ProtectHeader = type { %struct.BlockHeader, i8, i16, i32, [8 x i8] }
%struct.EAHeader = type { %struct.SubBlockHeader.base, i32, i8, i8, i32 }
%struct.SubBlockHeader.base = type <{ %struct.BlockHeader, i16, i8 }>
%struct.StreamHeader = type <{ %struct.SubBlockHeader.base, i8, i32, i8, i8, [2 x i8], i32, i16, [260 x i8], [2 x i8] }>

; Function Attrs: mustprogress uwtable
define noundef i32 @_ZN9QuickOpen10ReadBufferEv(ptr noundef nonnull align 8 dereferenceable(2673) %0) #0 align 2 {
  %2 = alloca ptr, align 8
  %3 = alloca i64, align 8
  %4 = alloca i64, align 8
  %5 = alloca i32, align 4
  store ptr %0, ptr %2, align 8
  %6 = load ptr, ptr %2, align 8
  %7 = getelementptr inbounds %class.QuickOpen, ptr %6, i32 0, i32 0
  %8 = load ptr, ptr %7, align 8
  %9 = load ptr, ptr %8, align 8
  %10 = getelementptr inbounds ptr, ptr %9, i64 6
  %11 = load ptr, ptr %10, align 8
  %12 = call noundef i64 %11(ptr noundef nonnull align 8 dereferenceable(57108) %8)
  store i64 %12, ptr %3, align 8
  %13 = getelementptr inbounds %class.QuickOpen, ptr %6, i32 0, i32 0
  %14 = load ptr, ptr %13, align 8
  %15 = getelementptr inbounds %class.QuickOpen, ptr %6, i32 0, i32 11
  %16 = load i64, ptr %15, align 8
  %17 = getelementptr inbounds %class.QuickOpen, ptr %6, i32 0, i32 13
  %18 = load i64, ptr %17, align 8
  %19 = add i64 %16, %18
  call void @_ZN4File4SeekEli(ptr noundef nonnull align 8 dereferenceable(8256) %14, i64 noundef %19, i32 noundef 0)
  %20 = getelementptr inbounds %class.QuickOpen, ptr %6, i32 0, i32 12
  %21 = load i64, ptr %20, align 8
  %22 = getelementptr inbounds %class.QuickOpen, ptr %6, i32 0, i32 13
  %23 = load i64, ptr %22, align 8
  %24 = sub i64 %21, %23
  %25 = getelementptr inbounds %class.QuickOpen, ptr %6, i32 0, i32 14
  %26 = load i64, ptr %25, align 8
  %27 = sub i64 65536, %26
  %28 = icmp ult i64 %24, %27
  br i1 %28, label %29, label %35

29:                                               ; preds = %1
  %30 = getelementptr inbounds %class.QuickOpen, ptr %6, i32 0, i32 12
  %31 = load i64, ptr %30, align 8
  %32 = getelementptr inbounds %class.QuickOpen, ptr %6, i32 0, i32 13
  %33 = load i64, ptr %32, align 8
  %34 = sub i64 %31, %33
  br label %39

35:                                               ; preds = %1
  %36 = getelementptr inbounds %class.QuickOpen, ptr %6, i32 0, i32 14
  %37 = load i64, ptr %36, align 8
  %38 = sub i64 65536, %37
  br label %39

39:                                               ; preds = %35, %29
  %40 = phi i64 [ %34, %29 ], [ %38, %35 ]
  store i64 %40, ptr %4, align 8
  %41 = getelementptr inbounds %class.QuickOpen, ptr %6, i32 0, i32 0
  %42 = load ptr, ptr %41, align 8
  %43 = getelementptr inbounds %class.Archive, ptr %42, i32 0, i32 24
  %44 = getelementptr inbounds %struct.FileHeader, ptr %43, i32 0, i32 18
  %45 = load i8, ptr %44, align 1
  %46 = trunc i8 %45 to i1
  br i1 %46, label %47, label %50

47:                                               ; preds = %39
  %48 = load i64, ptr %4, align 8
  %49 = and i64 %48, -16
  store i64 %49, ptr %4, align 8
  br label %50

50:                                               ; preds = %47, %39
  store i32 0, ptr %5, align 4
  %51 = load i64, ptr %4, align 8
  %52 = icmp ne i64 %51, 0
  br i1 %52, label %53, label %95

53:                                               ; preds = %50
  %54 = getelementptr inbounds %class.QuickOpen, ptr %6, i32 0, i32 0
  %55 = load ptr, ptr %54, align 8
  %56 = getelementptr inbounds %class.QuickOpen, ptr %6, i32 0, i32 5
  %57 = load ptr, ptr %56, align 8
  %58 = getelementptr inbounds %class.QuickOpen, ptr %6, i32 0, i32 14
  %59 = load i64, ptr %58, align 8
  %60 = getelementptr inbounds i8, ptr %57, i64 %59
  %61 = load i64, ptr %4, align 8
  %62 = call noundef i32 @_ZN4File4ReadEPvm(ptr noundef nonnull align 8 dereferenceable(8256) %55, ptr noundef %60, i64 noundef %61)
  store i32 %62, ptr %5, align 4
  %63 = load i32, ptr %5, align 4
  %64 = icmp sle i32 %63, 0
  br i1 %64, label %65, label %66

65:                                               ; preds = %53
  store i32 0, ptr %5, align 4
  br label %94

66:                                               ; preds = %53
  %67 = getelementptr inbounds %class.QuickOpen, ptr %6, i32 0, i32 0
  %68 = load ptr, ptr %67, align 8
  %69 = getelementptr inbounds %class.Archive, ptr %68, i32 0, i32 24
  %70 = getelementptr inbounds %struct.FileHeader, ptr %69, i32 0, i32 18
  %71 = load i8, ptr %70, align 1
  %72 = trunc i8 %71 to i1
  br i1 %72, label %73, label %83

73:                                               ; preds = %66
  %74 = getelementptr inbounds %class.QuickOpen, ptr %6, i32 0, i32 7
  %75 = getelementptr inbounds %class.QuickOpen, ptr %6, i32 0, i32 5
  %76 = load ptr, ptr %75, align 8
  %77 = getelementptr inbounds %class.QuickOpen, ptr %6, i32 0, i32 14
  %78 = load i64, ptr %77, align 8
  %79 = getelementptr inbounds i8, ptr %76, i64 %78
  %80 = load i32, ptr %5, align 4
  %81 = and i32 %80, -16
  %82 = sext i32 %81 to i64
  call void @_ZN9CryptData12DecryptBlockEPhm(ptr noundef nonnull align 8 dereferenceable(2516) %74, ptr noundef %79, i64 noundef %82)
  br label %83

83:                                               ; preds = %73, %66
  %84 = load i32, ptr %5, align 4
  %85 = sext i32 %84 to i64
  %86 = getelementptr inbounds %class.QuickOpen, ptr %6, i32 0, i32 13
  %87 = load i64, ptr %86, align 8
  %88 = add i64 %87, %85
  store i64 %88, ptr %86, align 8
  %89 = load i32, ptr %5, align 4
  %90 = sext i32 %89 to i64
  %91 = getelementptr inbounds %class.QuickOpen, ptr %6, i32 0, i32 14
  %92 = load i64, ptr %91, align 8
  %93 = add i64 %92, %90
  store i64 %93, ptr %91, align 8
  br label %94

94:                                               ; preds = %83, %65
  br label %95

95:                                               ; preds = %94, %50
  %96 = getelementptr inbounds %class.QuickOpen, ptr %6, i32 0, i32 0
  %97 = load ptr, ptr %96, align 8
  %98 = load i64, ptr %3, align 8
  %99 = load ptr, ptr %97, align 8
  %100 = getelementptr inbounds ptr, ptr %99, i64 5
  %101 = load ptr, ptr %100, align 8
  call void %101(ptr noundef nonnull align 8 dereferenceable(57108) %97, i64 noundef %98, i32 noundef 0)
  %102 = load i32, ptr %5, align 4
  ret i32 %102
}