; Function Attrs: mustprogress uwtable
define noundef i32 @_ZN9QuickOpen10ReadBufferEv(ptr noundef nonnull align 8 dereferenceable(2673) %0) local_unnamed_addr #0 align 2 {
  %2 = load ptr, ptr %0, align 8
  %3 = load ptr, ptr %2, align 8
  %4 = getelementptr inbounds i8, ptr %3, i64 48
  %5 = load ptr, ptr %4, align 8
  %6 = tail call noundef i64 %5(ptr noundef nonnull align 8 dereferenceable(57108) %2)
  %7 = load ptr, ptr %0, align 8
  %8 = getelementptr inbounds i8, ptr %0, i64 2584
  %9 = load i64, ptr %8, align 8
  %10 = getelementptr inbounds i8, ptr %0, i64 2600
  %11 = load i64, ptr %10, align 8
  %12 = add i64 %11, %9
  tail call void @_ZN4File4SeekEli(ptr noundef nonnull align 8 dereferenceable(8256) %7, i64 noundef %12, i32 noundef 0)
  %13 = getelementptr inbounds i8, ptr %0, i64 2592
  %14 = load i64, ptr %13, align 8
  %15 = load i64, ptr %10, align 8
  %16 = sub i64 %14, %15
  %17 = getelementptr inbounds i8, ptr %0, i64 2608
  %18 = load i64, ptr %17, align 8
  %19 = sub i64 65536, %18
  %. = tail call i64 @llvm.umin.i64(i64 %16, i64 %19)
  %20 = load ptr, ptr %0, align 8
  %21 = getelementptr inbounds i8, ptr %20, i64 39579
  %22 = load i8, ptr %21, align 1
  %23 = trunc i8 %22 to i1
  %24 = and i64 %., -16
  %.09 = select i1 %23, i64 %24, i64 %.
  %.not = icmp eq i64 %.09, 0
  br i1 %.not, label %48, label %25

25:                                               ; preds = %1
  %26 = getelementptr inbounds i8, ptr %0, i64 32
  %27 = load ptr, ptr %26, align 8
  %28 = getelementptr inbounds i8, ptr %27, i64 %18
  %29 = tail call noundef i32 @_ZN4File4ReadEPvm(ptr noundef nonnull align 8 dereferenceable(8256) %20, ptr noundef %28, i64 noundef %.09)
  %30 = icmp slt i32 %29, 1
  %.pre13 = load ptr, ptr %0, align 8
  br i1 %30, label %48, label %31

31:                                               ; preds = %25
  %32 = getelementptr inbounds i8, ptr %.pre13, i64 39579
  %33 = load i8, ptr %32, align 1
  %34 = trunc i8 %33 to i1
  br i1 %34, label %35, label %42

35:                                               ; preds = %31
  %36 = getelementptr inbounds i8, ptr %0, i64 48
  %37 = load ptr, ptr %26, align 8
  %38 = load i64, ptr %17, align 8
  %39 = getelementptr inbounds i8, ptr %37, i64 %38
  %40 = and i32 %29, 2147483632
  %41 = zext nneg i32 %40 to i64
  tail call void @_ZN9CryptData12DecryptBlockEPhm(ptr noundef nonnull align 8 dereferenceable(2516) %36, ptr noundef %39, i64 noundef %41)
  %.pre.pre = load ptr, ptr %0, align 8
  br label %42

42:                                               ; preds = %35, %31
  %.pre = phi ptr [ %.pre.pre, %35 ], [ %.pre13, %31 ]
  %43 = zext nneg i32 %29 to i64
  %44 = load <2 x i64>, ptr %10, align 8
  %45 = insertelement <2 x i64> poison, i64 %43, i64 0
  %46 = shufflevector <2 x i64> %45, <2 x i64> poison, <2 x i32> zeroinitializer
  %47 = add <2 x i64> %44, %46
  store <2 x i64> %47, ptr %10, align 8
  br label %48

48:                                               ; preds = %25, %42, %1
  %49 = phi ptr [ %.pre, %42 ], [ %20, %1 ], [ %.pre13, %25 ]
  %.0 = phi i32 [ %29, %42 ], [ 0, %1 ], [ 0, %25 ]
  %50 = load ptr, ptr %49, align 8
  %51 = getelementptr inbounds i8, ptr %50, i64 40
  %52 = load ptr, ptr %51, align 8
  tail call void %52(ptr noundef nonnull align 8 dereferenceable(57108) %49, i64 noundef %6, i32 noundef 0)
  ret i32 %.0
}